; Function Attrs: mustprogress uwtable
define noundef zeroext i1 @_ZN8facebook5velox4exec19SignatureBinderBase26checkOrSetIntegerParameterERKNSt7__cxx1112basic_stringIcSt11char_traitsIcESaIcEEEi(ptr noundef nonnull align 8 dereferenceable(120) %this, ptr noundef nonnull align 8 dereferenceable(32) %parameterName, i32 noundef %value) local_unnamed_addr #0 align 2 {
entry:
  %0 = load ptr, ptr %this, align 8
  %variables_.i.i = getelementptr inbounds i8, ptr %0, i64 8
  %call.i.i = tail call ptr @_ZNKSt10_HashtableINSt7__cxx1112basic_stringIcSt11char_traitsIcESaIcEEESt4pairIKS5_N8facebook5velox4exec17SignatureVariableEESaISC_ENSt8__detail10_Select1stESt8equal_toIS5_ESt4hashIS5_ENSE_18_Mod_range_hashingENSE_20_Default_ranged_hashENSE_20_Prime_rehash_policyENSE_17_Hashtable_traitsILb1ELb0ELb1EEEE4findERS7_(ptr noundef nonnull align 8 dereferenceable(56) %variables_.i.i, ptr noundef nonnull align 8 dereferenceable(32) %parameterName)
  %tobool.not.i.i.not = icmp eq ptr %call.i.i, null
  br i1 %tobool.not.i.i.not, label %return, label %if.end

if.end:                                           ; preds = %entry
  %integerVariablesBindings_ = getelementptr inbounds i8, ptr %this, i64 64
  %call.i.i5 = tail call ptr @_ZNKSt10_HashtableINSt7__cxx1112basic_stringIcSt11char_traitsIcESaIcEEESt4pairIKS5_iESaIS8_ENSt8__detail10_Select1stESt8equal_toIS5_ESt4hashIS5_ENSA_18_Mod_range_hashingENSA_20_Default_ranged_hashENSA_20_Prime_rehash_policyENSA_17_Hashtable_traitsILb1ELb0ELb1EEEE4findERS7_(ptr noundef nonnull align 8 dereferenceable(56) %integerVariablesBindings_, ptr noundef nonnull align 8 dereferenceable(32) %parameterName)
  %tobool.not.i.i6.not = icmp eq ptr %call.i.i5, null
  br i1 %tobool.not.i.i6.not, label %if.end10, label %if.then5

if.then5:                                         ; preds = %if.end
  %call.i = tail call noundef nonnull align 4 dereferenceable(4) ptr @_ZNSt8__detail9_Map_baseINSt7__cxx1112basic_stringIcSt11char_traitsIcESaIcEEESt4pairIKS6_iESaIS9_ENS_10_Select1stESt8equal_toIS6_ESt4hashIS6_ENS_18_Mod_range_hashingENS_20_Default_ranged_hashENS_20_Prime_rehash_policyENS_17_Hashtable_traitsILb1ELb0ELb1EEELb1EEixERS8_(ptr noundef nonnull align 1 dereferenceable(1) %integerVariablesBindings_, ptr noundef nonnull align 8 dereferenceable(32) %parameterName)
  %1 = load i32, ptr %call.i, align 4
  %cmp.not = icmp eq i32 %1, %value
  br i1 %cmp.not, label %if.end10, label %return

if.end10:                                         ; preds = %if.then5, %if.end
  %call.i8 = tail call noundef nonnull align 4 dereferenceable(4) ptr @_ZNSt8__detail9_Map_baseINSt7__cxx1112basic_stringIcSt11char_traitsIcESaIcEEESt4pairIKS6_iESaIS9_ENS_10_Select1stESt8equal_toIS6_ESt4hashIS6_ENS_18_Mod_range_hashingENS_20_Default_ranged_hashENS_20_Prime_rehash_policyENS_17_Hashtable_traitsILb1ELb0ELb1EEELb1EEixERS8_(ptr noundef nonnull align 1 dereferenceable(1) %integerVariablesBindings_, ptr noundef nonnull align 8 dereferenceable(32) %parameterName)
  store i32 %value, ptr %call.i8, align 4
  br label %return

return:                                           ; preds = %if.then5, %entry, %if.end10
  %retval.0 = phi i1 [ true, %if.end10 ], [ false, %entry ], [ false, %if.then5 ]
  ret i1 %retval.0
}